target datalayout = "e-m:e-p270:32:32-p271:32:32-p272:64:64-i64:64-i128:128-f80:128-n8:16:32:64-S128"
target triple = "x86_64-pc-linux-gnu"

%struct.SDL_Surface = type { i32, i32, i32, i32, i32, ptr, i32, ptr, i32, i32, ptr, i32, ptr, i32, ptr, i32, %struct.SDL_Rect, %struct.SDL_BlitMap }
%struct.SDL_Rect = type { i32, i32, i32, i32 }
%struct.SDL_BlitMap = type { i32, ptr, ptr, %struct.SDL_BlitInfo, i32, i32 }
%struct.SDL_BlitInfo = type { ptr, ptr, i32, i32, i32, i32, ptr, ptr, i32, i32, i32, i32, ptr, ptr, ptr, ptr, ptr, ptr, i32, i32, i8, i8, i8, i8 }
%struct.SDL_Palette = type { i32, ptr, i32, i32 }

@SDL_surface_magic = internal global i8 0, align 1
@.str = private unnamed_addr constant [26 x i8] c"Parameter '%s' is invalid\00", align 1
@.str.5 = private unnamed_addr constant [8 x i8] c"surface\00", align 1
@.str.11 = private unnamed_addr constant [4 x i8] c"key\00", align 1

; Function Attrs: nounwind uwtable
define hidden zeroext i1 @SDL_SurfaceValid(ptr noundef %0) #0 {
  %2 = alloca ptr, align 8
  store ptr %0, ptr %2, align 8
  %3 = load ptr, ptr %2, align 8
  %4 = icmp ne ptr %3, null
  br i1 %4, label %5, label %10

5:                                                ; preds = %1
  %6 = load ptr, ptr %2, align 8
  %7 = getelementptr inbounds nuw %struct.SDL_Surface, ptr %6, i32 0, i32 7
  %8 = load ptr, ptr %7, align 8
  %9 = icmp eq ptr %8, @SDL_surface_magic
  br label %10

10:                                               ; preds = %5, %1
  %11 = phi i1 [ false, %1 ], [ %9, %5 ]
  ret i1 %11
}

; Function Attrs: nounwind uwtable
define hidden zeroext i1 @SDL_SetSurfaceColorKey_REAL(ptr noundef %0, i1 noundef zeroext %1, i32 noundef %2) #0 {
  %4 = alloca i1, align 1
  %5 = alloca ptr, align 8
  %6 = alloca i8, align 1
  %7 = alloca i32, align 4
  %8 = alloca i32, align 4
  %9 = alloca i32, align 4
  store ptr %0, ptr %5, align 8
  %10 = zext i1 %1 to i8
  store i8 %10, ptr %6, align 1
  store i32 %2, ptr %7, align 4
  call void @llvm.lifetime.start.p0(i64 4, ptr %8) #8
  %11 = load ptr, ptr %5, align 8
  %12 = call zeroext i1 @SDL_SurfaceValid(ptr noundef %11)
  br i1 %12, label %15, label %13

13:                                               ; preds = %3
  %14 = call zeroext i1 (ptr, ...) @SDL_SetError_REAL(ptr noundef @.str, ptr noundef @.str.5)
  store i1 %14, ptr %4, align 1
  store i32 1, ptr %9, align 4
  br label %69

15:                                               ; preds = %3
  %16 = load ptr, ptr %5, align 8
  %17 = getelementptr inbounds nuw %struct.SDL_Surface, ptr %16, i32 0, i32 12
  %18 = load ptr, ptr %17, align 8
  %19 = icmp ne ptr %18, null
  br i1 %19, label %20, label %30

20:                                               ; preds = %15
  %21 = load i32, ptr %7, align 4
  %22 = load ptr, ptr %5, align 8
  %23 = getelementptr inbounds nuw %struct.SDL_Surface, ptr %22, i32 0, i32 12
  %24 = load ptr, ptr %23, align 8
  %25 = getelementptr inbounds nuw %struct.SDL_Palette, ptr %24, i32 0, i32 0
  %26 = load i32, ptr %25, align 8
  %27 = icmp uge i32 %21, %26
  br i1 %27, label %28, label %30

28:                                               ; preds = %20
  %29 = call zeroext i1 (ptr, ...) @SDL_SetError_REAL(ptr noundef @.str, ptr noundef @.str.11)
  store i1 %29, ptr %4, align 1
  store i32 1, ptr %9, align 4
  br label %69

30:                                               ; preds = %20, %15
  %31 = load ptr, ptr %5, align 8
  %32 = getelementptr inbounds nuw %struct.SDL_Surface, ptr %31, i32 0, i32 17
  %33 = getelementptr inbounds nuw %struct.SDL_BlitMap, ptr %32, i32 0, i32 3
  %34 = getelementptr inbounds nuw %struct.SDL_BlitInfo, ptr %33, i32 0, i32 18
  %35 = load i32, ptr %34, align 8
  store i32 %35, ptr %8, align 4
  %36 = load i8, ptr %6, align 1, !range !3, !noundef !4
  %37 = trunc i8 %36 to i1
  br i1 %37, label %38, label %50

38:                                               ; preds = %30
  %39 = load ptr, ptr %5, align 8
  %40 = getelementptr inbounds nuw %struct.SDL_Surface, ptr %39, i32 0, i32 17
  %41 = getelementptr inbounds nuw %struct.SDL_BlitMap, ptr %40, i32 0, i32 3
  %42 = getelementptr inbounds nuw %struct.SDL_BlitInfo, ptr %41, i32 0, i32 18
  %43 = load i32, ptr %42, align 8
  %44 = or i32 %43, 1024
  store i32 %44, ptr %42, align 8
  %45 = load i32, ptr %7, align 4
  %46 = load ptr, ptr %5, align 8
  %47 = getelementptr inbounds nuw %struct.SDL_Surface, ptr %46, i32 0, i32 17
  %48 = getelementptr inbounds nuw %struct.SDL_BlitMap, ptr %47, i32 0, i32 3
  %49 = getelementptr inbounds nuw %struct.SDL_BlitInfo, ptr %48, i32 0, i32 19
  store i32 %45, ptr %49, align 4
  br label %57

50:                                               ; preds = %30
  %51 = load ptr, ptr %5, align 8
  %52 = getelementptr inbounds nuw %struct.SDL_Surface, ptr %51, i32 0, i32 17
  %53 = getelementptr inbounds nuw %struct.SDL_BlitMap, ptr %52, i32 0, i32 3
  %54 = getelementptr inbounds nuw %struct.SDL_BlitInfo, ptr %53, i32 0, i32 18
  %55 = load i32, ptr %54, align 8
  %56 = and i32 %55, -1025
  store i32 %56, ptr %54, align 8
  br label %57

57:                                               ; preds = %50, %38
  %58 = load ptr, ptr %5, align 8
  %59 = getelementptr inbounds nuw %struct.SDL_Surface, ptr %58, i32 0, i32 17
  %60 = getelementptr inbounds nuw %struct.SDL_BlitMap, ptr %59, i32 0, i32 3
  %61 = getelementptr inbounds nuw %struct.SDL_BlitInfo, ptr %60, i32 0, i32 18
  %62 = load i32, ptr %61, align 8
  %63 = load i32, ptr %8, align 4
  %64 = icmp ne i32 %62, %63
  br i1 %64, label %65, label %68

65:                                               ; preds = %57
  %66 = load ptr, ptr %5, align 8
  %67 = getelementptr inbounds nuw %struct.SDL_Surface, ptr %66, i32 0, i32 17
  call void @SDL_InvalidateMap(ptr noundef %67)
  br label %68

68:                                               ; preds = %65, %57
  store i1 true, ptr %4, align 1
  store i32 1, ptr %9, align 4
  br label %69

69:                                               ; preds = %68, %28, %13
  call void @llvm.lifetime.end.p0(i64 4, ptr %8) #8
  %70 = load i1, ptr %4, align 1
  ret i1 %70
}