; Function Attrs: nounwind uwtable
define hidden zeroext i1 @SDL_SetSurfaceColorKey_REAL(ptr noundef %0, i1 noundef zeroext %1, i32 noundef %2) local_unnamed_addr #2 {
  %.not.i = icmp eq ptr %0, null
  br i1 %.not.i, label %SDL_SurfaceValid.exit.thread, label %SDL_SurfaceValid.exit

SDL_SurfaceValid.exit:                            ; preds = %3
  %4 = getelementptr inbounds nuw i8, ptr %0, i64 40
  %5 = load ptr, ptr %4, align 8
  %6 = icmp eq ptr %5, @SDL_surface_magic
  br i1 %6, label %8, label %SDL_SurfaceValid.exit.thread

SDL_SurfaceValid.exit.thread:                     ; preds = %3, %SDL_SurfaceValid.exit
  %7 = tail call zeroext i1 (ptr, ...) @SDL_SetError_REAL(ptr noundef nonnull @.str, ptr noundef nonnull @.str.5) #10
  br label %26

8:                                                ; preds = %SDL_SurfaceValid.exit
  %9 = getelementptr inbounds nuw i8, ptr %0, i64 72
  %10 = load ptr, ptr %9, align 8
  %.not = icmp eq ptr %10, null
  br i1 %.not, label %15, label %11

11:                                               ; preds = %8
  %12 = load i32, ptr %10, align 8
  %.not14 = icmp ult i32 %2, %12
  br i1 %.not14, label %15, label %13

13:                                               ; preds = %11
  %14 = tail call zeroext i1 (ptr, ...) @SDL_SetError_REAL(ptr noundef nonnull @.str, ptr noundef nonnull @.str.11) #10
  br label %26

15:                                               ; preds = %11, %8
  %16 = getelementptr inbounds nuw i8, ptr %0, i64 120
  %17 = getelementptr inbounds nuw i8, ptr %0, i64 256
  %18 = load i32, ptr %17, align 8
  br i1 %1, label %19, label %22

19:                                               ; preds = %15
  %20 = or i32 %18, 1024
  %21 = getelementptr inbounds nuw i8, ptr %0, i64 260
  store i32 %2, ptr %21, align 4
  br label %24

22:                                               ; preds = %15
  %23 = and i32 %18, -1025
  br label %24

24:                                               ; preds = %22, %19
  %.sink = phi i32 [ %20, %19 ], [ %23, %22 ]
  store i32 %.sink, ptr %17, align 8
  %.not15 = icmp eq i32 %.sink, %18
  br i1 %.not15, label %26, label %25

25:                                               ; preds = %24
  tail call void @SDL_InvalidateMap(ptr noundef nonnull %16) #10
  br label %26

26:                                               ; preds = %24, %25, %13, %SDL_SurfaceValid.exit.thread
  %.0 = phi i1 [ %14, %13 ], [ %7, %SDL_SurfaceValid.exit.thread ], [ true, %25 ], [ true, %24 ]
  ret i1 %.0
}